; Function Attrs: mustprogress uwtable
define noundef zeroext i1 @_ZNK32pxrInternal_v0_24__pxrReserved__14UsdGeomPrimvar22NameContainsNamespacesEv(ptr noundef nonnull align 8 dereferenceable(44) %0) local_unnamed_addr #1 align 2 personality ptr @__gxx_personality_v0 {
  %2 = load atomic i8, ptr @_ZGVZNK32pxrInternal_v0_24__pxrReserved__14UsdGeomPrimvar22NameContainsNamespacesEvE17primvarsPrefixLen acquire, align 8
  %3 = icmp eq i8 %2, 0
  br i1 %3, label %4, label %19, !prof !85

4:                                                ; preds = %1
  %5 = tail call i32 @__cxa_guard_acquire(ptr nonnull @_ZGVZNK32pxrInternal_v0_24__pxrReserved__14UsdGeomPrimvar22NameContainsNamespacesEvE17primvarsPrefixLen) #18
  %.not = icmp eq i32 %5, 0
  br i1 %.not, label %19, label %6

6:                                                ; preds = %4
  %7 = invoke fastcc noundef ptr @_ZNK32pxrInternal_v0_24__pxrReserved__12TfStaticDataINS_12_GLOBAL__N_130_tokens_PrivateStaticTokenTypeENS_27Tf_StaticDataDefaultFactoryIS2_EEEptEv()
          to label %8 unwind label %48

8:                                                ; preds = %6
  %9 = load ptr, ptr %7, align 8
  %10 = ptrtoint ptr %9 to i64
  %11 = and i64 %10, -8
  %.not.i = icmp eq i64 %11, 0
  br i1 %.not.i, label %15, label %12

12:                                               ; preds = %8
  %13 = inttoptr i64 %11 to ptr
  %14 = getelementptr inbounds nuw i8, ptr %13, i64 16
  br label %_ZNK32pxrInternal_v0_24__pxrReserved__7TfToken9GetStringB5cxx11Ev.exit

15:                                               ; preds = %8
  %16 = invoke noundef nonnull align 8 dereferenceable(32) ptr @_ZN32pxrInternal_v0_24__pxrReserved__7TfToken15_GetEmptyStringB5cxx11Ev()
          to label %_ZNK32pxrInternal_v0_24__pxrReserved__7TfToken9GetStringB5cxx11Ev.exit unwind label %48

_ZNK32pxrInternal_v0_24__pxrReserved__7TfToken9GetStringB5cxx11Ev.exit: ; preds = %12, %15
  %17 = phi ptr [ %14, %12 ], [ %16, %15 ]
  %18 = tail call noundef i64 @_ZNKSt7__cxx1112basic_stringIcSt11char_traitsIcESaIcEE4sizeEv(ptr noundef nonnull align 8 dereferenceable(32) %17) #18
  store i64 %18, ptr @_ZZNK32pxrInternal_v0_24__pxrReserved__14UsdGeomPrimvar22NameContainsNamespacesEvE17primvarsPrefixLen, align 8
  tail call void @__cxa_guard_release(ptr nonnull @_ZGVZNK32pxrInternal_v0_24__pxrReserved__14UsdGeomPrimvar22NameContainsNamespacesEvE17primvarsPrefixLen) #18
  br label %19

19:                                               ; preds = %_ZNK32pxrInternal_v0_24__pxrReserved__7TfToken9GetStringB5cxx11Ev.exit, %4, %1
  %20 = load i32, ptr %0, align 8
  %21 = icmp eq i32 %20, 1
  br i1 %21, label %22, label %33

22:                                               ; preds = %19
  %23 = getelementptr inbounds nuw i8, ptr %0, i64 16
  %24 = load i32, ptr %23, align 8
  %.not.i.i.i = icmp eq i32 %24, 0
  br i1 %.not.i.i.i, label %25, label %_ZNK32pxrInternal_v0_24__pxrReserved__9UsdObject11GetPrimPathEv.exit.i

25:                                               ; preds = %22
  %26 = getelementptr inbounds nuw i8, ptr %0, i64 8
  %27 = load ptr, ptr %26, align 8
  %.not.i.i = icmp eq ptr %27, null
  br i1 %.not.i.i, label %30, label %28

28:                                               ; preds = %25
  %29 = getelementptr inbounds nuw i8, ptr %27, i64 16
  br label %_ZNK32pxrInternal_v0_24__pxrReserved__9UsdObject11GetPrimPathEv.exit.i

30:                                               ; preds = %25
  %31 = tail call noundef nonnull align 4 dereferenceable(8) ptr @_ZN32pxrInternal_v0_24__pxrReserved__7SdfPath9EmptyPathEv()
  br label %_ZNK32pxrInternal_v0_24__pxrReserved__9UsdObject11GetPrimPathEv.exit.i

_ZNK32pxrInternal_v0_24__pxrReserved__9UsdObject11GetPrimPathEv.exit.i: ; preds = %30, %28, %22
  %.0.i.i = phi ptr [ %29, %28 ], [ %31, %30 ], [ %23, %22 ]
  %32 = tail call noundef nonnull align 8 dereferenceable(8) ptr @_ZNK32pxrInternal_v0_24__pxrReserved__7SdfPath12GetNameTokenEv(ptr noundef nonnull align 4 dereferenceable(8) %.0.i.i)
  br label %_ZNK32pxrInternal_v0_24__pxrReserved__9UsdObject7GetNameEv.exit

33:                                               ; preds = %19
  %34 = getelementptr inbounds nuw i8, ptr %0, i64 24
  br label %_ZNK32pxrInternal_v0_24__pxrReserved__9UsdObject7GetNameEv.exit

_ZNK32pxrInternal_v0_24__pxrReserved__9UsdObject7GetNameEv.exit: ; preds = %_ZNK32pxrInternal_v0_24__pxrReserved__9UsdObject11GetPrimPathEv.exit.i, %33
  %35 = phi ptr [ %32, %_ZNK32pxrInternal_v0_24__pxrReserved__9UsdObject11GetPrimPathEv.exit.i ], [ %34, %33 ]
  %36 = load ptr, ptr %35, align 8
  %37 = ptrtoint ptr %36 to i64
  %38 = and i64 %37, -8
  %.not.i2 = icmp eq i64 %38, 0
  br i1 %.not.i2, label %42, label %39

39:                                               ; preds = %_ZNK32pxrInternal_v0_24__pxrReserved__9UsdObject7GetNameEv.exit
  %40 = inttoptr i64 %38 to ptr
  %41 = getelementptr inbounds nuw i8, ptr %40, i64 16
  br label %_ZNK32pxrInternal_v0_24__pxrReserved__7TfToken9GetStringB5cxx11Ev.exit3

42:                                               ; preds = %_ZNK32pxrInternal_v0_24__pxrReserved__9UsdObject7GetNameEv.exit
  %43 = tail call noundef nonnull align 8 dereferenceable(32) ptr @_ZN32pxrInternal_v0_24__pxrReserved__7TfToken15_GetEmptyStringB5cxx11Ev()
  br label %_ZNK32pxrInternal_v0_24__pxrReserved__7TfToken9GetStringB5cxx11Ev.exit3

_ZNK32pxrInternal_v0_24__pxrReserved__7TfToken9GetStringB5cxx11Ev.exit3: ; preds = %39, %42
  %44 = phi ptr [ %41, %39 ], [ %43, %42 ]
  %45 = load i64, ptr @_ZZNK32pxrInternal_v0_24__pxrReserved__14UsdGeomPrimvar22NameContainsNamespacesEvE17primvarsPrefixLen, align 8
  %46 = tail call noundef i64 @_ZNKSt7__cxx1112basic_stringIcSt11char_traitsIcESaIcEE4findEcm(ptr noundef nonnull align 8 dereferenceable(32) %44, i8 noundef signext 58, i64 noundef %45) #18
  %47 = icmp ne i64 %46, -1
  ret i1 %47

48:                                               ; preds = %15, %6
  %49 = landingpad { ptr, i32 }
          cleanup
  tail call void @__cxa_guard_abort(ptr nonnull @_ZGVZNK32pxrInternal_v0_24__pxrReserved__14UsdGeomPrimvar22NameContainsNamespacesEvE17primvarsPrefixLen) #18
  resume { ptr, i32 } %49
}